target datalayout = "e-m:e-p270:32:32-p271:32:32-p272:64:64-i64:64-i128:128-f80:128-n8:16:32:64-S128"
target triple = "x86_64-unknown-linux-gnu"

%class.symbol = type { ptr }
%"class.spacer::prop_solver" = type <{ ptr, %class.symbol, [2 x %class.ref], [2 x %class.scoped_ptr], ptr, %class.ptr_vector, %class.ref_vector, %class.ref_vector, %class.obj_hashtable, ptr, ptr, i8, [3 x i8], i32, i8, i8, i8, i8, i32, %class.random_gen, [4 x i8] }>
%class.ref = type { ptr }
%class.scoped_ptr = type { ptr }
%class.ptr_vector = type { %class.vector }
%class.vector = type { ptr }
%class.ref_vector = type { %class.ref_vector_core }
%class.ref_vector_core = type { %class.ref_manager_wrapper, %class.ptr_vector.0 }
%class.ref_manager_wrapper = type { ptr }
%class.ptr_vector.0 = type { %class.vector.1 }
%class.vector.1 = type { ptr }
%class.obj_hashtable = type { %class.core_hashtable.base, [4 x i8] }
%class.core_hashtable.base = type <{ ptr, i32, i32, i32 }>
%class.random_gen = type { i32 }
%class.obj_ref = type { ptr, ptr }
%"class.ref_vector<app, ast_manager>::element_ref" = type { ptr, ptr }
%class.ast = type { i32, i24, i32, i32 }

; Function Attrs: mustprogress nounwind uwtable
define linkonce_odr hidden void @_ZN3ast7inc_refEv(ptr noundef nonnull align 4 dereferenceable(16) %this) #6 comdat align 2 {
entry:
  %this.addr = alloca ptr, align 8
  store ptr %this, ptr %this.addr, align 8
  %this1 = load ptr, ptr %this.addr, align 8
  %m_ref_count = getelementptr inbounds %class.ast, ptr %this1, i32 0, i32 2
  %0 = load i32, ptr %m_ref_count, align 4
  %inc = add i32 %0, 1
  store i32 %inc, ptr %m_ref_count, align 4
  ret void
}

; Function Attrs: mustprogress uwtable
define linkonce_odr hidden void @_ZN11ast_manager7inc_refEP3ast(ptr noundef nonnull align 8 dereferenceable(976) %this, ptr noundef %n) #4 comdat align 2 {
entry:
  %this.addr = alloca ptr, align 8
  %n.addr = alloca ptr, align 8
  store ptr %this, ptr %this.addr, align 8
  store ptr %n, ptr %n.addr, align 8
  %0 = load ptr, ptr %n.addr, align 8
  %tobool = icmp ne ptr %0, null
  br i1 %tobool, label %if.then, label %if.end

if.then:                                          ; preds = %entry
  %1 = load ptr, ptr %n.addr, align 8
  call void @_ZN3ast7inc_refEv(ptr noundef nonnull align 4 dereferenceable(16) %1)
  br label %if.end

if.end:                                           ; preds = %if.then, %entry
  ret void
}

; Function Attrs: mustprogress nounwind uwtable
define linkonce_odr hidden noundef i32 @_ZNK6vectorIP9func_declLb0EjE4sizeEv(ptr noundef nonnull align 8 dereferenceable(8) %this) #6 comdat align 2 {
entry:
  %retval = alloca i32, align 4
  %this.addr = alloca ptr, align 8
  store ptr %this, ptr %this.addr, align 8
  %this1 = load ptr, ptr %this.addr, align 8
  %m_data = getelementptr inbounds %class.vector, ptr %this1, i32 0, i32 0
  %0 = load ptr, ptr %m_data, align 8
  %cmp = icmp eq ptr %0, null
  br i1 %cmp, label %if.then, label %if.end

if.then:                                          ; preds = %entry
  store i32 0, ptr %retval, align 4
  br label %return

if.end:                                           ; preds = %entry
  %m_data2 = getelementptr inbounds %class.vector, ptr %this1, i32 0, i32 0
  %1 = load ptr, ptr %m_data2, align 8
  %arrayidx = getelementptr inbounds i32, ptr %1, i64 -1
  %2 = load i32, ptr %arrayidx, align 4
  store i32 %2, ptr %retval, align 4
  br label %return

return:                                           ; preds = %if.end, %if.then
  %3 = load i32, ptr %retval, align 4
  ret i32 %3
}

; Function Attrs: mustprogress uwtable
define linkonce_odr hidden void @_ZN7obj_refI3app11ast_managerE7inc_refEv(ptr noundef nonnull align 8 dereferenceable(16) %this) #4 comdat align 2 {
entry:
  %this.addr = alloca ptr, align 8
  store ptr %this, ptr %this.addr, align 8
  %this1 = load ptr, ptr %this.addr, align 8
  %m_obj = getelementptr inbounds %class.obj_ref, ptr %this1, i32 0, i32 0
  %0 = load ptr, ptr %m_obj, align 8
  %tobool = icmp ne ptr %0, null
  br i1 %tobool, label %if.then, label %if.end

if.then:                                          ; preds = %entry
  %m_manager = getelementptr inbounds %class.obj_ref, ptr %this1, i32 0, i32 1
  %1 = load ptr, ptr %m_manager, align 8
  %m_obj2 = getelementptr inbounds %class.obj_ref, ptr %this1, i32 0, i32 0
  %2 = load ptr, ptr %m_obj2, align 8
  call void @_ZN11ast_manager7inc_refEP3ast(ptr noundef nonnull align 8 dereferenceable(976) %1, ptr noundef %2)
  br label %if.end

if.end:                                           ; preds = %if.then, %entry
  ret void
}

; Function Attrs: mustprogress nounwind uwtable
define linkonce_odr hidden void @_ZN10ref_vectorI3app11ast_managerE11element_refC2ERPS0_RS1_(ptr noundef nonnull align 8 dereferenceable(16) %this, ptr noundef nonnull align 8 dereferenceable(8) %ref, ptr noundef nonnull align 8 dereferenceable(976) %m) unnamed_addr #6 comdat align 2 {
entry:
  %this.addr = alloca ptr, align 8
  %ref.addr = alloca ptr, align 8
  %m.addr = alloca ptr, align 8
  store ptr %this, ptr %this.addr, align 8
  store ptr %ref, ptr %ref.addr, align 8
  store ptr %m, ptr %m.addr, align 8
  %this1 = load ptr, ptr %this.addr, align 8
  %m_ref = getelementptr inbounds %"class.ref_vector<app, ast_manager>::element_ref", ptr %this1, i32 0, i32 0
  %0 = load ptr, ptr %ref.addr, align 8
  store ptr %0, ptr %m_ref, align 8
  %m_manager = getelementptr inbounds %"class.ref_vector<app, ast_manager>::element_ref", ptr %this1, i32 0, i32 1
  %1 = load ptr, ptr %m.addr, align 8
  store ptr %1, ptr %m_manager, align 8
  ret void
}

; Function Attrs: mustprogress nounwind uwtable
define linkonce_odr hidden noundef nonnull align 8 dereferenceable(8) ptr @_ZN6vectorIP3appLb0EjEixEj(ptr noundef nonnull align 8 dereferenceable(8) %this, i32 noundef %idx) #6 comdat align 2 {
entry:
  %this.addr = alloca ptr, align 8
  %idx.addr = alloca i32, align 4
  store ptr %this, ptr %this.addr, align 8
  store i32 %idx, ptr %idx.addr, align 4
  %this1 = load ptr, ptr %this.addr, align 8
  %m_data = getelementptr inbounds %class.vector.1, ptr %this1, i32 0, i32 0
  %0 = load ptr, ptr %m_data, align 8
  %1 = load i32, ptr %idx.addr, align 4
  %idxprom = zext i32 %1 to i64
  %arrayidx = getelementptr inbounds ptr, ptr %0, i64 %idxprom
  ret ptr %arrayidx
}

; Function Attrs: mustprogress uwtable
define hidden noundef i32 @_ZNK6spacer11prop_solver9level_cntEv(ptr noundef nonnull align 8 dereferenceable(156) %this) #4 align 2 {
entry:
  %this.addr = alloca ptr, align 8
  store ptr %this, ptr %this.addr, align 8
  %this1 = load ptr, ptr %this.addr, align 8
  %m_level_preds = getelementptr inbounds %"class.spacer::prop_solver", ptr %this1, i32 0, i32 5
  %call = call noundef i32 @_ZNK6vectorIP9func_declLb0EjE4sizeEv(ptr noundef nonnull align 8 dereferenceable(8) %m_level_preds)
  ret i32 %call
}

; Function Attrs: mustprogress nounwind uwtable
define linkonce_odr hidden noundef ptr @_ZNK7obj_refI3app11ast_managerEcvPS0_Ev(ptr noundef nonnull align 8 dereferenceable(16) %this) #6 comdat align 2 {
entry:
  %this.addr = alloca ptr, align 8
  store ptr %this, ptr %this.addr, align 8
  %this1 = load ptr, ptr %this.addr, align 8
  %m_obj = getelementptr inbounds %class.obj_ref, ptr %this1, i32 0, i32 0
  %0 = load ptr, ptr %m_obj, align 8
  ret ptr %0
}

; Function Attrs: mustprogress uwtable
define linkonce_odr hidden void @_ZN7obj_refI3app11ast_managerEC2EPS0_RS1_(ptr noundef nonnull align 8 dereferenceable(16) %this, ptr noundef %n, ptr noundef nonnull align 8 dereferenceable(976) %m) unnamed_addr #4 comdat align 2 {
entry:
  %this.addr = alloca ptr, align 8
  %n.addr = alloca ptr, align 8
  %m.addr = alloca ptr, align 8
  store ptr %this, ptr %this.addr, align 8
  store ptr %n, ptr %n.addr, align 8
  store ptr %m, ptr %m.addr, align 8
  %this1 = load ptr, ptr %this.addr, align 8
  %m_obj = getelementptr inbounds %class.obj_ref, ptr %this1, i32 0, i32 0
  %0 = load ptr, ptr %n.addr, align 8
  store ptr %0, ptr %m_obj, align 8
  %m_manager = getelementptr inbounds %class.obj_ref, ptr %this1, i32 0, i32 1
  %1 = load ptr, ptr %m.addr, align 8
  store ptr %1, ptr %m_manager, align 8
  call void @_ZN7obj_refI3app11ast_managerE7inc_refEv(ptr noundef nonnull align 8 dereferenceable(16) %this1)
  ret void
}

; Function Attrs: mustprogress uwtable
define linkonce_odr hidden noundef ptr @_ZN11ast_manager5mk_orEP4exprS1_(ptr noundef nonnull align 8 dereferenceable(976) %this, ptr noundef %arg1, ptr noundef %arg2) #4 comdat align 2 {
entry:
  %this.addr = alloca ptr, align 8
  %arg1.addr = alloca ptr, align 8
  %arg2.addr = alloca ptr, align 8
  store ptr %this, ptr %this.addr, align 8
  store ptr %arg1, ptr %arg1.addr, align 8
  store ptr %arg2, ptr %arg2.addr, align 8
  %this1 = load ptr, ptr %this.addr, align 8
  %0 = load ptr, ptr %arg1.addr, align 8
  %1 = load ptr, ptr %arg2.addr, align 8
  %call = call noundef ptr @_ZN11ast_manager6mk_appEiiP4exprS1_(ptr noundef nonnull align 8 dereferenceable(976) %this1, i32 noundef 0, i32 noundef 6, ptr noundef %0, ptr noundef %1)
  ret ptr %call
}

; Function Attrs: mustprogress nounwind uwtable
define linkonce_odr hidden noundef ptr @_ZNK10ref_vectorI3app11ast_managerE11element_ref3getEv(ptr noundef nonnull align 8 dereferenceable(16) %this) #6 comdat align 2 {
entry:
  %this.addr = alloca ptr, align 8
  store ptr %this, ptr %this.addr, align 8
  %this1 = load ptr, ptr %this.addr, align 8
  %m_ref = getelementptr inbounds %"class.ref_vector<app, ast_manager>::element_ref", ptr %this1, i32 0, i32 0
  %0 = load ptr, ptr %m_ref, align 8
  %1 = load ptr, ptr %0, align 8
  ret ptr %1
}

; Function Attrs: mustprogress uwtable
define linkonce_odr hidden { ptr, ptr } @_ZN10ref_vectorI3app11ast_managerEixEj(ptr noundef nonnull align 8 dereferenceable(16) %this, i32 noundef %idx) #4 comdat align 2 {
entry:
  %retval = alloca %"class.ref_vector<app, ast_manager>::element_ref", align 8
  %this.addr = alloca ptr, align 8
  %idx.addr = alloca i32, align 4
  store ptr %this, ptr %this.addr, align 8
  store i32 %idx, ptr %idx.addr, align 4
  %this1 = load ptr, ptr %this.addr, align 8
  %m_nodes = getelementptr inbounds %class.ref_vector_core, ptr %this1, i32 0, i32 1
  %0 = load i32, ptr %idx.addr, align 4
  %call = call noundef nonnull align 8 dereferenceable(8) ptr @_ZN6vectorIP3appLb0EjEixEj(ptr noundef nonnull align 8 dereferenceable(8) %m_nodes, i32 noundef %0)
  %m_manager = getelementptr inbounds %class.ref_manager_wrapper, ptr %this1, i32 0, i32 0
  %1 = load ptr, ptr %m_manager, align 8
  call void @_ZN10ref_vectorI3app11ast_managerE11element_refC2ERPS0_RS1_(ptr noundef nonnull align 8 dereferenceable(16) %retval, ptr noundef nonnull align 8 dereferenceable(8) %call, ptr noundef nonnull align 8 dereferenceable(976) %1)
  %2 = load { ptr, ptr }, ptr %retval, align 8
  ret { ptr, ptr } %2
}

; Function Attrs: mustprogress uwtable
define hidden void @_ZN6spacer11prop_solver12ensure_levelEj(ptr noundef nonnull align 8 dereferenceable(156) %this, i32 noundef %lvl) #4 align 2 {
entry:
  %this.addr = alloca ptr, align 8
  %lvl.addr = alloca i32, align 4
  store ptr %this, ptr %this.addr, align 8
  store i32 %lvl, ptr %lvl.addr, align 4
  %this1 = load ptr, ptr %this.addr, align 8
  %0 = load i32, ptr %lvl.addr, align 4
  %call = call noundef zeroext i1 @_ZN6spacer14is_infty_levelEj(i32 noundef %0)
  br i1 %call, label %if.then, label %if.end

if.then:                                          ; preds = %entry
  br label %while.end

if.end:                                           ; preds = %entry
  br label %while.cond

while.cond:                                       ; preds = %while.body, %if.end
  %1 = load i32, ptr %lvl.addr, align 4
  %call2 = call noundef i32 @_ZNK6spacer11prop_solver9level_cntEv(ptr noundef nonnull align 8 dereferenceable(156) %this1)
  %cmp = icmp uge i32 %1, %call2
  br i1 %cmp, label %while.body, label %while.end

while.body:                                       ; preds = %while.cond
  call void @_ZN6spacer11prop_solver9add_levelEv(ptr noundef nonnull align 8 dereferenceable(156) %this1)
  br label %while.cond, !llvm.loop !7

while.end:                                        ; preds = %while.cond, %if.then
  ret void
}

; Function Attrs: mustprogress nounwind uwtable
define linkonce_odr hidden noundef zeroext i1 @_ZN6spacer14is_infty_levelEj(i32 noundef %lvl) #6 comdat {
entry:
  %lvl.addr = alloca i32, align 4
  store i32 %lvl, ptr %lvl.addr, align 4
  %0 = load i32, ptr %lvl.addr, align 4
  %cmp = icmp uge i32 %0, 65535
  ret i1 %cmp
}

; Function Attrs: mustprogress uwtable
define hidden void @_ZN6spacer11prop_solver11assert_exprEP4exprj(ptr noundef nonnull align 8 dereferenceable(156) %this, ptr noundef %form, i32 noundef %level) #4 align 2 personality ptr @__gxx_personality_v0 {
entry:
  %this.addr = alloca ptr, align 8
  %form.addr = alloca ptr, align 8
  %level.addr = alloca i32, align 4
  %lev_atom = alloca ptr, align 8
  %ref.tmp = alloca %"class.ref_vector<app, ast_manager>::element_ref", align 8
  %lform = alloca %class.obj_ref, align 8
  %exn.slot = alloca ptr, align 8
  %ehselector.slot = alloca i32, align 4
  store ptr %this, ptr %this.addr, align 8
  store ptr %form, ptr %form.addr, align 8
  store i32 %level, ptr %level.addr, align 4
  %this1 = load ptr, ptr %this.addr, align 8
  %0 = load i32, ptr %level.addr, align 4
  %call = call noundef zeroext i1 @_ZN6spacer14is_infty_levelEj(i32 noundef %0)
  br i1 %call, label %if.then, label %if.end

if.then:                                          ; preds = %entry
  %1 = load ptr, ptr %form.addr, align 8
  call void @_ZN6spacer11prop_solver11assert_exprEP4expr(ptr noundef nonnull align 8 dereferenceable(156) %this1, ptr noundef %1)
  br label %return

if.end:                                           ; preds = %entry
  %2 = load i32, ptr %level.addr, align 4
  call void @_ZN6spacer11prop_solver12ensure_levelEj(ptr noundef nonnull align 8 dereferenceable(156) %this1, i32 noundef %2)
  %m_pos_level_atoms = getelementptr inbounds %"class.spacer::prop_solver", ptr %this1, i32 0, i32 6
  %3 = load i32, ptr %level.addr, align 4
  %call2 = call { ptr, ptr } @_ZN10ref_vectorI3app11ast_managerEixEj(ptr noundef nonnull align 8 dereferenceable(16) %m_pos_level_atoms, i32 noundef %3)
  %4 = getelementptr inbounds { ptr, ptr }, ptr %ref.tmp, i32 0, i32 0
  %5 = extractvalue { ptr, ptr } %call2, 0
  store ptr %5, ptr %4, align 8
  %6 = getelementptr inbounds { ptr, ptr }, ptr %ref.tmp, i32 0, i32 1
  %7 = extractvalue { ptr, ptr } %call2, 1
  store ptr %7, ptr %6, align 8
  %call3 = call noundef ptr @_ZNK10ref_vectorI3app11ast_managerE11element_ref3getEv(ptr noundef nonnull align 8 dereferenceable(16) %ref.tmp)
  store ptr %call3, ptr %lev_atom, align 8
  %m = getelementptr inbounds %"class.spacer::prop_solver", ptr %this1, i32 0, i32 0
  %8 = load ptr, ptr %m, align 8
  %9 = load ptr, ptr %form.addr, align 8
  %10 = load ptr, ptr %lev_atom, align 8
  %call4 = call noundef ptr @_ZN11ast_manager5mk_orEP4exprS1_(ptr noundef nonnull align 8 dereferenceable(976) %8, ptr noundef %9, ptr noundef %10)
  %m5 = getelementptr inbounds %"class.spacer::prop_solver", ptr %this1, i32 0, i32 0
  %11 = load ptr, ptr %m5, align 8
  call void @_ZN7obj_refI3app11ast_managerEC2EPS0_RS1_(ptr noundef nonnull align 8 dereferenceable(16) %lform, ptr noundef %call4, ptr noundef nonnull align 8 dereferenceable(976) %11)
  %call6 = invoke noundef ptr @_ZNK7obj_refI3app11ast_managerEcvPS0_Ev(ptr noundef nonnull align 8 dereferenceable(16) %lform)
          to label %invoke.cont unwind label %lpad

invoke.cont:                                      ; preds = %if.end
  invoke void @_ZN6spacer11prop_solver11assert_exprEP4expr(ptr noundef nonnull align 8 dereferenceable(156) %this1, ptr noundef %call6)
          to label %invoke.cont7 unwind label %lpad

invoke.cont7:                                     ; preds = %invoke.cont
  call void @_ZN7obj_refI3app11ast_managerED2Ev(ptr noundef nonnull align 8 dereferenceable(16) %lform) #3
  br label %return

return:                                           ; preds = %invoke.cont7, %if.then
  ret void

lpad:                                             ; preds = %invoke.cont, %if.end
  %12 = landingpad { ptr, i32 }
          cleanup
  %13 = extractvalue { ptr, i32 } %12, 0
  store ptr %13, ptr %exn.slot, align 8
  %14 = extractvalue { ptr, i32 } %12, 1
  store i32 %14, ptr %ehselector.slot, align 4
  call void @_ZN7obj_refI3app11ast_managerED2Ev(ptr noundef nonnull align 8 dereferenceable(16) %lform) #3
  br label %eh.resume

eh.resume:                                        ; preds = %lpad
  %exn = load ptr, ptr %exn.slot, align 8
  %sel = load i32, ptr %ehselector.slot, align 4
  %lpad.val = insertvalue { ptr, i32 } poison, ptr %exn, 0
  %lpad.val8 = insertvalue { ptr, i32 } %lpad.val, i32 %sel, 1
  resume { ptr, i32 } %lpad.val8
}