; Function Attrs: mustprogress uwtable
define hidden void @_ZN6spacer11prop_solver11assert_exprEP4exprj(ptr noundef nonnull align 8 dereferenceable(156) %this, ptr noundef %form, i32 noundef %level) local_unnamed_addr #3 align 2 personality ptr @__gxx_personality_v0 {
entry:
  %lform = alloca %class.obj_ref, align 8
  %cmp.i = icmp ugt i32 %level, 65534
  br i1 %cmp.i, label %if.then, label %while.cond.preheader.i

if.then:                                          ; preds = %entry
  tail call void @_ZN6spacer11prop_solver11assert_exprEP4expr(ptr noundef nonnull align 8 dereferenceable(156) %this, ptr noundef %form)
  br label %return

while.cond.preheader.i:                           ; preds = %entry
  %m_level_preds.i.i = getelementptr inbounds i8, ptr %this, i64 56
  br label %while.cond.i

while.cond.i:                                     ; preds = %while.body.i, %while.cond.preheader.i
  %0 = load ptr, ptr %m_level_preds.i.i, align 8
  %cmp.i.i.i = icmp eq ptr %0, null
  br i1 %cmp.i.i.i, label %while.body.i, label %_ZNK6spacer11prop_solver9level_cntEv.exit.i

_ZNK6spacer11prop_solver9level_cntEv.exit.i:      ; preds = %while.cond.i
  %arrayidx.i.i.i = getelementptr inbounds i8, ptr %0, i64 -4
  %1 = load i32, ptr %arrayidx.i.i.i, align 4
  %cmp.not.i = icmp ugt i32 %1, %level
  br i1 %cmp.not.i, label %_ZN6spacer11prop_solver12ensure_levelEj.exit, label %while.body.i

while.body.i:                                     ; preds = %_ZNK6spacer11prop_solver9level_cntEv.exit.i, %while.cond.i
  tail call void @_ZN6spacer11prop_solver9add_levelEv(ptr noundef nonnull align 8 dereferenceable(156) %this)
  br label %while.cond.i, !llvm.loop !8

_ZN6spacer11prop_solver12ensure_levelEj.exit:     ; preds = %_ZNK6spacer11prop_solver9level_cntEv.exit.i
  %m_nodes.i = getelementptr inbounds i8, ptr %this, i64 72
  %2 = load ptr, ptr %m_nodes.i, align 8
  %idxprom.i.i = zext nneg i32 %level to i64
  %arrayidx.i.i = getelementptr inbounds ptr, ptr %2, i64 %idxprom.i.i
  %3 = load ptr, ptr %arrayidx.i.i, align 8
  %4 = load ptr, ptr %this, align 8
  %call.i = tail call noundef ptr @_ZN11ast_manager6mk_appEiiP4exprS1_(ptr noundef nonnull align 8 dereferenceable(976) %4, i32 noundef 0, i32 noundef 6, ptr noundef %form, ptr noundef %3)
  %5 = load ptr, ptr %this, align 8
  store ptr %call.i, ptr %lform, align 8
  %m_manager.i = getelementptr inbounds i8, ptr %lform, i64 8
  store ptr %5, ptr %m_manager.i, align 8
  %tobool.not.i.i = icmp eq ptr %call.i, null
  br i1 %tobool.not.i.i, label %_ZN7obj_refI3app11ast_managerEC2EPS0_RS1_.exit, label %_ZN11ast_manager7inc_refEP3ast.exit.i.i

_ZN11ast_manager7inc_refEP3ast.exit.i.i:          ; preds = %_ZN6spacer11prop_solver12ensure_levelEj.exit
  %m_ref_count.i.i.i.i = getelementptr inbounds i8, ptr %call.i, i64 8
  %6 = load i32, ptr %m_ref_count.i.i.i.i, align 4
  %inc.i.i.i.i = add i32 %6, 1
  store i32 %inc.i.i.i.i, ptr %m_ref_count.i.i.i.i, align 4
  br label %_ZN7obj_refI3app11ast_managerEC2EPS0_RS1_.exit

_ZN7obj_refI3app11ast_managerEC2EPS0_RS1_.exit:   ; preds = %_ZN6spacer11prop_solver12ensure_levelEj.exit, %_ZN11ast_manager7inc_refEP3ast.exit.i.i
  invoke void @_ZN6spacer11prop_solver11assert_exprEP4expr(ptr noundef nonnull align 8 dereferenceable(156) %this, ptr noundef %call.i)
          to label %invoke.cont7 unwind label %lpad

invoke.cont7:                                     ; preds = %_ZN7obj_refI3app11ast_managerEC2EPS0_RS1_.exit
  br i1 %tobool.not.i.i, label %return, label %if.then.i.i.i

if.then.i.i.i:                                    ; preds = %invoke.cont7
  %m_ref_count.i.i.i.i5 = getelementptr inbounds i8, ptr %call.i, i64 8
  %7 = load i32, ptr %m_ref_count.i.i.i.i5, align 4
  %dec.i.i.i.i = add i32 %7, -1
  store i32 %dec.i.i.i.i, ptr %m_ref_count.i.i.i.i5, align 4
  %cmp.i.i.i6 = icmp eq i32 %dec.i.i.i.i, 0
  br i1 %cmp.i.i.i6, label %if.then2.i.i.i, label %return

if.then2.i.i.i:                                   ; preds = %if.then.i.i.i
  invoke void @_ZN11ast_manager11delete_nodeEP3ast(ptr noundef nonnull align 8 dereferenceable(976) %5, ptr noundef nonnull %call.i)
          to label %return unwind label %terminate.lpad.i

terminate.lpad.i:                                 ; preds = %if.then2.i.i.i
  %8 = landingpad { ptr, i32 }
          catch ptr null
  %9 = extractvalue { ptr, i32 } %8, 0
  tail call void @__clang_call_terminate(ptr %9) #17
  unreachable

return:                                           ; preds = %if.then2.i.i.i, %if.then.i.i.i, %invoke.cont7, %if.then
  ret void

lpad:                                             ; preds = %_ZN7obj_refI3app11ast_managerEC2EPS0_RS1_.exit
  %10 = landingpad { ptr, i32 }
          cleanup
  call void @_ZN7obj_refI3app11ast_managerED2Ev(ptr noundef nonnull align 8 dereferenceable(16) %lform) #16
  resume { ptr, i32 } %10
}